target datalayout = "e-m:e-p270:32:32-p271:32:32-p272:64:64-i64:64-i128:128-f80:128-n8:16:32:64-S128"
target triple = "x86_64-pc-linux-gnu"

%"class.std::__cxx11::basic_string" = type { %"struct.std::__cxx11::basic_string<char>::_Alloc_hider", i64, %union.anon }
%"struct.std::__cxx11::basic_string<char>::_Alloc_hider" = type { ptr }
%union.anon = type { i64, [8 x i8] }
%struct.CheckpointHeaderContents = type <{ i32, [1024 x i8], [1024 x i8], [1024 x i8], [1024 x i8], i32, [1024 x i8], [1024 x i8], i32, i32, i64, double, i32, [3 x i32], i32, i32, i32, i32, i32, i32, i32, i32, i32, i32, i32, i32, i32, i32, i8, [7 x i8] }>
%"class.std::filesystem::__cxx11::path" = type { %"class.std::__cxx11::basic_string", %"struct.std::filesystem::__cxx11::path::_List" }
%"struct.std::filesystem::__cxx11::path::_List" = type { %"class.std::unique_ptr.132" }
%"class.std::unique_ptr.132" = type { %"struct.std::__uniq_ptr_data.133" }
%"struct.std::__uniq_ptr_data.133" = type { %"class.std::__uniq_ptr_impl.134" }
%"class.std::__uniq_ptr_impl.134" = type { %"class.std::tuple.135" }
%"class.std::tuple.135" = type { %"struct.std::_Tuple_impl.136" }
%"struct.std::_Tuple_impl.136" = type { %"struct.std::_Head_base.139" }
%"struct.std::_Head_base.139" = type { ptr }

@.str.240 = private unnamed_addr constant [2 x i8] c"r\00", align 1

; Function Attrs: mustprogress nounwind uwtable
define available_externally noundef i64 @_ZNKSt7__cxx1112basic_stringIcSt11char_traitsIcESaIcEE4sizeEv(ptr noundef nonnull align 8 dereferenceable(32) %0) #3 align 2 {
  %2 = alloca ptr, align 8
  store ptr %0, ptr %2, align 8, !tbaa !4
  %3 = load ptr, ptr %2, align 8
  %4 = getelementptr inbounds nuw %"class.std::__cxx11::basic_string", ptr %3, i32 0, i32 1
  %5 = load i64, ptr %4, align 8, !tbaa !42
  ret i64 %5
}

; Function Attrs: mustprogress nounwind uwtable
define available_externally noundef zeroext i1 @_ZNKSt7__cxx1112basic_stringIcSt11char_traitsIcESaIcEE5emptyEv(ptr noundef nonnull align 8 dereferenceable(32) %0) #3 align 2 {
  %2 = alloca ptr, align 8
  store ptr %0, ptr %2, align 8, !tbaa !4
  %3 = load ptr, ptr %2, align 8
  %4 = call noundef i64 @_ZNKSt7__cxx1112basic_stringIcSt11char_traitsIcESaIcEE4sizeEv(ptr noundef nonnull align 8 dereferenceable(32) %3) #21
  %5 = icmp eq i64 %4, 0
  ret i1 %5
}

; Function Attrs: inlinehint mustprogress nounwind uwtable
define linkonce_odr void @_ZN24CheckpointHeaderContentsC2Ev(ptr noundef nonnull align 8 dereferenceable(6249) %0) unnamed_addr #5 comdat align 2 {
  %2 = alloca ptr, align 8
  store ptr %0, ptr %2, align 8, !tbaa !440
  %3 = load ptr, ptr %2, align 8
  %4 = getelementptr inbounds nuw %struct.CheckpointHeaderContents, ptr %3, i32 0, i32 28
  store i8 0, ptr %4, align 8, !tbaa !377
  ret void
}

; Function Attrs: mustprogress nounwind uwtable
define linkonce_odr noundef zeroext i1 @_ZNKSt10filesystem7__cxx114path5emptyEv(ptr noundef nonnull align 8 dereferenceable(40) %0) #3 comdat align 2 {
  %2 = alloca ptr, align 8
  store ptr %0, ptr %2, align 8, !tbaa !548
  %3 = load ptr, ptr %2, align 8
  %4 = getelementptr inbounds nuw %"class.std::filesystem::__cxx11::path", ptr %3, i32 0, i32 0
  %5 = call noundef zeroext i1 @_ZNKSt7__cxx1112basic_stringIcSt11char_traitsIcESaIcEE5emptyEv(ptr noundef nonnull align 8 dereferenceable(32) %4) #21
  ret i1 %5
}

; Function Attrs: mustprogress uwtable
define void @_Z29read_checkpoint_part_and_stepRKNSt10filesystem7__cxx114pathEPiPl(ptr noundef nonnull align 8 dereferenceable(40) %0, ptr noundef %1, ptr noundef %2) #0 {
  %4 = alloca ptr, align 8
  %5 = alloca ptr, align 8
  %6 = alloca ptr, align 8
  %7 = alloca ptr, align 8
  %8 = alloca i32, align 4
  %9 = alloca %struct.CheckpointHeaderContents, align 8
  store ptr %0, ptr %4, align 8, !tbaa !548
  store ptr %1, ptr %5, align 8, !tbaa !159
  store ptr %2, ptr %6, align 8, !tbaa !86
  call void @llvm.lifetime.start.p0(i64 8, ptr %7) #21
  %10 = load ptr, ptr %4, align 8, !tbaa !548
  %11 = call noundef zeroext i1 @_ZNKSt10filesystem7__cxx114path5emptyEv(ptr noundef nonnull align 8 dereferenceable(40) %10) #21
  br i1 %11, label %19, label %12

12:                                               ; preds = %3
  %13 = load ptr, ptr %4, align 8, !tbaa !548
  %14 = call noundef zeroext i1 @_Z10gmx_fexistRKNSt10filesystem7__cxx114pathE(ptr noundef nonnull align 8 dereferenceable(40) %13)
  br i1 %14, label %15, label %19

15:                                               ; preds = %12
  %16 = load ptr, ptr %4, align 8, !tbaa !548
  %17 = call noundef ptr @_Z12gmx_fio_openRKNSt10filesystem7__cxx114pathEPKc(ptr noundef nonnull align 8 dereferenceable(40) %16, ptr noundef @.str.240)
  store ptr %17, ptr %7, align 8, !tbaa !325
  %18 = icmp eq ptr %17, null
  br i1 %18, label %19, label %22

19:                                               ; preds = %15, %12, %3
  %20 = load ptr, ptr %5, align 8, !tbaa !159
  store i32 0, ptr %20, align 4, !tbaa !25
  %21 = load ptr, ptr %6, align 8, !tbaa !86
  store i64 0, ptr %21, align 8, !tbaa !11
  store i32 1, ptr %8, align 4
  br label %33

22:                                               ; preds = %15
  call void @llvm.lifetime.start.p0(i64 6256, ptr %9) #21
  call void @_ZN24CheckpointHeaderContentsC2Ev(ptr noundef nonnull align 8 dereferenceable(6249) %9) #21
  %23 = load ptr, ptr %7, align 8, !tbaa !325
  %24 = call noundef ptr @_Z14gmx_fio_getxdrP8t_fileio(ptr noundef %23)
  call void @_ZL13do_cpt_headerP3XDRbP8_IO_FILEP24CheckpointHeaderContents(ptr noundef %24, i1 noundef zeroext true, ptr noundef null, ptr noundef %9)
  %25 = load ptr, ptr %7, align 8, !tbaa !325
  %26 = call noundef i32 @_Z13gmx_fio_closeP8t_fileio(ptr noundef %25)
  %27 = getelementptr inbounds nuw %struct.CheckpointHeaderContents, ptr %9, i32 0, i32 9
  %28 = load i32, ptr %27, align 4, !tbaa !446
  %29 = load ptr, ptr %5, align 8, !tbaa !159
  store i32 %28, ptr %29, align 4, !tbaa !25
  %30 = getelementptr inbounds nuw %struct.CheckpointHeaderContents, ptr %9, i32 0, i32 10
  %31 = load i64, ptr %30, align 8, !tbaa !447
  %32 = load ptr, ptr %6, align 8, !tbaa !86
  store i64 %31, ptr %32, align 8, !tbaa !11
  call void @llvm.lifetime.end.p0(i64 6256, ptr %9) #21
  store i32 0, ptr %8, align 4
  br label %33

33:                                               ; preds = %22, %19
  call void @llvm.lifetime.end.p0(i64 8, ptr %7) #21
  %34 = load i32, ptr %8, align 4
  switch i32 %34, label %36 [
    i32 0, label %35
    i32 1, label %35
  ]

35:                                               ; preds = %33, %33
  ret void

36:                                               ; preds = %33
  unreachable
}