; Function Attrs: mustprogress uwtable
define void @_Z29read_checkpoint_part_and_stepRKNSt10filesystem7__cxx114pathEPiPl(ptr noundef nonnull align 8 dereferenceable(40) %0, ptr noundef writeonly captures(none) initializes((0, 4)) %1, ptr noundef writeonly captures(none) initializes((0, 8)) %2) local_unnamed_addr #0 {
  %4 = alloca %struct.CheckpointHeaderContents, align 8
  %5 = getelementptr inbounds nuw i8, ptr %0, i64 8
  %6 = load i64, ptr %5, align 8, !tbaa !16
  %7 = icmp eq i64 %6, 0
  br i1 %7, label %13, label %8

8:                                                ; preds = %3
  %9 = tail call noundef zeroext i1 @_Z10gmx_fexistRKNSt10filesystem7__cxx114pathE(ptr noundef nonnull align 8 dereferenceable(40) %0)
  br i1 %9, label %10, label %13

10:                                               ; preds = %8
  %11 = tail call noundef ptr @_Z12gmx_fio_openRKNSt10filesystem7__cxx114pathEPKc(ptr noundef nonnull align 8 dereferenceable(40) %0, ptr noundef nonnull @.str.240)
  %12 = icmp eq ptr %11, null
  br i1 %12, label %13, label %14

13:                                               ; preds = %10, %8, %3
  store i32 0, ptr %1, align 4, !tbaa !33
  store i64 0, ptr %2, align 8, !tbaa !17
  br label %22

14:                                               ; preds = %10
  call void @llvm.lifetime.start.p0(i64 6256, ptr nonnull %4) #25
  %15 = getelementptr inbounds nuw i8, ptr %4, i64 6248
  store i8 0, ptr %15, align 8, !tbaa !178
  %16 = tail call noundef ptr @_Z14gmx_fio_getxdrP8t_fileio(ptr noundef nonnull %11)
  call fastcc void @_ZL13do_cpt_headerP3XDRbP8_IO_FILEP24CheckpointHeaderContents(ptr noundef %16, i1 noundef zeroext true, ptr noundef null, ptr noundef nonnull %4)
  %17 = call noundef i32 @_Z13gmx_fio_closeP8t_fileio(ptr noundef nonnull %11)
  %18 = getelementptr inbounds nuw i8, ptr %4, i64 6156
  %19 = load i32, ptr %18, align 4, !tbaa !245
  store i32 %19, ptr %1, align 4, !tbaa !33
  %20 = getelementptr inbounds nuw i8, ptr %4, i64 6160
  %21 = load i64, ptr %20, align 8, !tbaa !246
  store i64 %21, ptr %2, align 8, !tbaa !17
  call void @llvm.lifetime.end.p0(i64 6256, ptr nonnull %4) #25
  br label %22

22:                                               ; preds = %14, %13
  ret void
}